; Function Attrs: nounwind sspstrong uwtable
define dso_local void @tcg_gen_mulsu2_i64(ptr noundef %0, ptr noundef %1, ptr noundef %2, ptr noundef %3) local_unnamed_addr #2 {
  %5 = tail call ptr @tcg_temp_ebb_new_i64() #6
  %6 = tail call ptr @tcg_temp_ebb_new_i64() #6
  %7 = tail call ptr @tcg_temp_ebb_new_i64() #6
  %8 = tail call align 8 ptr @llvm.threadlocal.address.p0(ptr align 8 @tcg_ctx)
  %9 = load ptr, ptr %8, align 8
  %10 = ptrtoint ptr %5 to i64
  %11 = getelementptr inbounds nuw i8, ptr %9, i64 %10
  %12 = ptrtoint ptr %11 to i64
  %13 = ptrtoint ptr %6 to i64
  %14 = getelementptr inbounds nuw i8, ptr %9, i64 %13
  %15 = ptrtoint ptr %14 to i64
  %16 = ptrtoint ptr %2 to i64
  %17 = getelementptr inbounds nuw i8, ptr %9, i64 %16
  %18 = ptrtoint ptr %17 to i64
  %19 = ptrtoint ptr %3 to i64
  %20 = getelementptr inbounds nuw i8, ptr %9, i64 %19
  %21 = ptrtoint ptr %20 to i64
  %22 = tail call ptr @tcg_gen_op4(i32 noundef 125, i32 noundef 1, i64 noundef %12, i64 noundef %15, i64 noundef %18, i64 noundef %21)
  %23 = tail call ptr @tcg_constant_i64(i64 noundef 63) #6
  %24 = load ptr, ptr %8, align 8
  %25 = ptrtoint ptr %7 to i64
  %26 = getelementptr inbounds nuw i8, ptr %24, i64 %25
  %27 = ptrtoint ptr %26 to i64
  %28 = getelementptr inbounds nuw i8, ptr %24, i64 %16
  %29 = ptrtoint ptr %28 to i64
  %30 = ptrtoint ptr %23 to i64
  %31 = getelementptr inbounds nuw i8, ptr %24, i64 %30
  %32 = ptrtoint ptr %31 to i64
  %33 = tail call ptr @tcg_gen_op3(i32 noundef 92, i32 noundef 1, i64 noundef %27, i64 noundef %29, i64 noundef %32)
  %34 = load ptr, ptr %8, align 8
  %35 = getelementptr inbounds nuw i8, ptr %34, i64 %25
  %36 = ptrtoint ptr %35 to i64
  %37 = getelementptr inbounds nuw i8, ptr %34, i64 %19
  %38 = ptrtoint ptr %37 to i64
  %39 = tail call ptr @tcg_gen_op3(i32 noundef 87, i32 noundef 1, i64 noundef %36, i64 noundef %36, i64 noundef %38)
  %40 = load ptr, ptr %8, align 8
  %41 = ptrtoint ptr %1 to i64
  %42 = getelementptr inbounds nuw i8, ptr %40, i64 %41
  %43 = ptrtoint ptr %42 to i64
  %44 = getelementptr inbounds nuw i8, ptr %40, i64 %13
  %45 = ptrtoint ptr %44 to i64
  %46 = getelementptr inbounds nuw i8, ptr %40, i64 %25
  %47 = ptrtoint ptr %46 to i64
  %48 = tail call ptr @tcg_gen_op3(i32 noundef 79, i32 noundef 1, i64 noundef %43, i64 noundef %45, i64 noundef %47)
  %49 = icmp eq ptr %0, %5
  br i1 %49, label %tcg_gen_mov_i64.exit, label %50

50:                                               ; preds = %4
  %51 = load ptr, ptr %8, align 8
  %52 = ptrtoint ptr %0 to i64
  %53 = getelementptr inbounds nuw i8, ptr %51, i64 %52
  %54 = ptrtoint ptr %53 to i64
  %55 = getelementptr inbounds nuw i8, ptr %51, i64 %10
  %56 = ptrtoint ptr %55 to i64
  %57 = tail call ptr @tcg_gen_op2(i32 noundef 63, i32 noundef 1, i64 noundef %54, i64 noundef %56)
  br label %tcg_gen_mov_i64.exit

tcg_gen_mov_i64.exit:                             ; preds = %4, %50
  tail call void @tcg_temp_free_i64(ptr noundef %5) #6
  tail call void @tcg_temp_free_i64(ptr noundef %6) #6
  tail call void @tcg_temp_free_i64(ptr noundef %7) #6
  ret void
}